target datalayout = "e-m:e-p270:32:32-p271:32:32-p272:64:64-i64:64-i128:128-f80:128-n8:16:32:64-S128"
target triple = "x86_64-pc-linux-gnu"

%"class.std::__cxx11::basic_string" = type { %"struct.std::__cxx11::basic_string<char>::_Alloc_hider", i64, %union.anon }
%"struct.std::__cxx11::basic_string<char>::_Alloc_hider" = type { ptr }
%union.anon = type { i64, [8 x i8] }
%"class.std::unique_ptr.34" = type { %"struct.std::__uniq_ptr_data.35" }
%"struct.std::__uniq_ptr_data.35" = type { %"class.std::__uniq_ptr_impl.36" }
%"class.std::__uniq_ptr_impl.36" = type { %"class.std::tuple.37" }
%"class.std::tuple.37" = type { %"struct.std::_Tuple_impl.38" }
%"struct.std::_Tuple_impl.38" = type { %"struct.std::_Head_base.41" }
%"struct.std::_Head_base.41" = type { ptr }
%"class.osgeo::proj::DiskChunkCache" = type { ptr, %"class.std::__cxx11::basic_string", ptr, %"class.std::unique_ptr.34" }
%"class.std::unique_ptr.48" = type { %"struct.std::__uniq_ptr_data.49" }
%"struct.std::__uniq_ptr_data.49" = type { %"class.std::__uniq_ptr_impl.50" }
%"class.std::__uniq_ptr_impl.50" = type { %"class.std::tuple.51" }
%"class.std::tuple.51" = type { %"struct.std::_Tuple_impl.52" }
%"struct.std::_Tuple_impl.52" = type { %"struct.std::_Head_base.55" }
%"struct.std::_Head_base.55" = type { ptr }
%"class.osgeo::proj::SQLiteStatement" = type { ptr, i32, i32 }

@.str.3 = private unnamed_addr constant [3 x i8] c"%s\00", align 1
@.str.36 = private unnamed_addr constant [57 x i8] c"UPDATE linked_chunks SET prev = ?, next = ? WHERE id = ?\00", align 1

; Function Attrs: mustprogress nounwind uwtable
define linkonce_odr hidden noundef nonnull align 8 dereferenceable(8) ptr @_ZNSt10_Head_baseILm0EPN5osgeo4proj15SQLiteStatementELb0EE7_M_headERKS4_(ptr noundef nonnull align 8 dereferenceable(8) %0) #6 comdat align 2 {
  %2 = alloca ptr, align 8
  store ptr %0, ptr %2, align 8, !tbaa !422
  %3 = load ptr, ptr %2, align 8, !tbaa !422
  %4 = getelementptr inbounds nuw %"struct.std::_Head_base.55", ptr %3, i32 0, i32 0
  ret ptr %4
}

; Function Attrs: mustprogress nounwind uwtable
define linkonce_odr hidden noundef nonnull align 8 dereferenceable(8) ptr @_ZNSt11_Tuple_implILm0EJPN5osgeo4proj15SQLiteStatementESt14default_deleteIS2_EEE7_M_headERKS6_(ptr noundef nonnull align 8 dereferenceable(8) %0) #6 comdat align 2 {
  %2 = alloca ptr, align 8
  store ptr %0, ptr %2, align 8, !tbaa !420
  %3 = load ptr, ptr %2, align 8, !tbaa !420
  %4 = call noundef nonnull align 8 dereferenceable(8) ptr @_ZNSt10_Head_baseILm0EPN5osgeo4proj15SQLiteStatementELb0EE7_M_headERKS4_(ptr noundef nonnull align 8 dereferenceable(8) %3) #4
  ret ptr %4
}

; Function Attrs: mustprogress nounwind uwtable
define linkonce_odr hidden noundef nonnull align 8 dereferenceable(8) ptr @_ZSt12__get_helperILm0EPN5osgeo4proj15SQLiteStatementEJSt14default_deleteIS2_EEERKT0_RKSt11_Tuple_implIXT_EJS6_DpT1_EE(ptr noundef nonnull align 8 dereferenceable(8) %0) #6 comdat {
  %2 = alloca ptr, align 8
  store ptr %0, ptr %2, align 8, !tbaa !420
  %3 = load ptr, ptr %2, align 8, !tbaa !420
  %4 = call noundef nonnull align 8 dereferenceable(8) ptr @_ZNSt11_Tuple_implILm0EJPN5osgeo4proj15SQLiteStatementESt14default_deleteIS2_EEE7_M_headERKS6_(ptr noundef nonnull align 8 dereferenceable(8) %3) #4
  ret ptr %4
}

; Function Attrs: mustprogress nounwind uwtable
define linkonce_odr hidden noundef nonnull align 8 dereferenceable(8) ptr @_ZSt3getILm0EJPN5osgeo4proj15SQLiteStatementESt14default_deleteIS2_EEERKNSt13tuple_elementIXT_ESt5tupleIJDpT0_EEE4typeERKSA_(ptr noundef nonnull align 8 dereferenceable(8) %0) #6 comdat {
  %2 = alloca ptr, align 8
  store ptr %0, ptr %2, align 8, !tbaa !418
  %3 = load ptr, ptr %2, align 8, !tbaa !418
  %4 = call noundef nonnull align 8 dereferenceable(8) ptr @_ZSt12__get_helperILm0EPN5osgeo4proj15SQLiteStatementEJSt14default_deleteIS2_EEERKT0_RKSt11_Tuple_implIXT_EJS6_DpT1_EE(ptr noundef nonnull align 8 dereferenceable(8) %3) #4
  ret ptr %4
}

; Function Attrs: mustprogress nounwind uwtable
define linkonce_odr hidden noundef ptr @_ZNKSt15__uniq_ptr_implIN5osgeo4proj15SQLiteStatementESt14default_deleteIS2_EE6_M_ptrEv(ptr noundef nonnull align 8 dereferenceable(8) %0) #6 comdat align 2 {
  %2 = alloca ptr, align 8
  store ptr %0, ptr %2, align 8, !tbaa !414
  %3 = load ptr, ptr %2, align 8
  %4 = getelementptr inbounds nuw %"class.std::__uniq_ptr_impl.50", ptr %3, i32 0, i32 0
  %5 = call noundef nonnull align 8 dereferenceable(8) ptr @_ZSt3getILm0EJPN5osgeo4proj15SQLiteStatementESt14default_deleteIS2_EEERKNSt13tuple_elementIXT_ESt5tupleIJDpT0_EEE4typeERKSA_(ptr noundef nonnull align 8 dereferenceable(8) %4) #4
  %6 = load ptr, ptr %5, align 8, !tbaa !84
  ret ptr %6
}

; Function Attrs: mustprogress nounwind uwtable
define linkonce_odr hidden noundef ptr @_ZNKSt10unique_ptrIN5osgeo4proj15SQLiteStatementESt14default_deleteIS2_EE3getEv(ptr noundef nonnull align 8 dereferenceable(8) %0) #6 comdat align 2 {
  %2 = alloca ptr, align 8
  store ptr %0, ptr %2, align 8, !tbaa !82
  %3 = load ptr, ptr %2, align 8
  %4 = getelementptr inbounds nuw %"class.std::unique_ptr.48", ptr %3, i32 0, i32 0
  %5 = call noundef ptr @_ZNKSt15__uniq_ptr_implIN5osgeo4proj15SQLiteStatementESt14default_deleteIS2_EE6_M_ptrEv(ptr noundef nonnull align 8 dereferenceable(8) %4) #4
  ret ptr %5
}

; Function Attrs: mustprogress uwtable
define linkonce_odr hidden noundef i32 @_ZN5osgeo4proj15SQLiteStatement7executeEv(ptr noundef nonnull align 8 dereferenceable(16) %0) #5 comdat align 2 {
  %2 = alloca ptr, align 8
  store ptr %0, ptr %2, align 8, !tbaa !84
  %3 = load ptr, ptr %2, align 8
  %4 = getelementptr inbounds nuw %"class.osgeo::proj::SQLiteStatement", ptr %3, i32 0, i32 0
  %5 = load ptr, ptr %4, align 8, !tbaa !86
  %6 = call i32 @sqlite3_step(ptr noundef %5)
  ret i32 %6
}

; Function Attrs: mustprogress uwtable
define linkonce_odr hidden void @_ZN5osgeo4proj15SQLiteStatement8bindNullEv(ptr noundef nonnull align 8 dereferenceable(16) %0) #5 comdat align 2 {
  %2 = alloca ptr, align 8
  store ptr %0, ptr %2, align 8, !tbaa !84
  %3 = load ptr, ptr %2, align 8
  %4 = getelementptr inbounds nuw %"class.osgeo::proj::SQLiteStatement", ptr %3, i32 0, i32 0
  %5 = load ptr, ptr %4, align 8, !tbaa !86
  %6 = getelementptr inbounds nuw %"class.osgeo::proj::SQLiteStatement", ptr %3, i32 0, i32 1
  %7 = load i32, ptr %6, align 8, !tbaa !95
  %8 = call i32 @sqlite3_bind_null(ptr noundef %5, i32 noundef %7)
  %9 = getelementptr inbounds nuw %"class.osgeo::proj::SQLiteStatement", ptr %3, i32 0, i32 1
  %10 = load i32, ptr %9, align 8, !tbaa !95
  %11 = add nsw i32 %10, 1
  store i32 %11, ptr %9, align 8, !tbaa !95
  ret void
}

; Function Attrs: mustprogress uwtable
define linkonce_odr hidden void @_ZN5osgeo4proj15SQLiteStatement9bindInt64Ex(ptr noundef nonnull align 8 dereferenceable(16) %0, i64 noundef %1) #5 comdat align 2 {
  %3 = alloca ptr, align 8
  %4 = alloca i64, align 8
  store ptr %0, ptr %3, align 8, !tbaa !84
  store i64 %1, ptr %4, align 8, !tbaa !77
  %5 = load ptr, ptr %3, align 8
  %6 = getelementptr inbounds nuw %"class.osgeo::proj::SQLiteStatement", ptr %5, i32 0, i32 0
  %7 = load ptr, ptr %6, align 8, !tbaa !86
  %8 = getelementptr inbounds nuw %"class.osgeo::proj::SQLiteStatement", ptr %5, i32 0, i32 1
  %9 = load i32, ptr %8, align 8, !tbaa !95
  %10 = load i64, ptr %4, align 8, !tbaa !77
  %11 = call i32 @sqlite3_bind_int64(ptr noundef %7, i32 noundef %9, i64 noundef %10)
  %12 = getelementptr inbounds nuw %"class.osgeo::proj::SQLiteStatement", ptr %5, i32 0, i32 1
  %13 = load i32, ptr %12, align 8, !tbaa !95
  %14 = add nsw i32 %13, 1
  store i32 %14, ptr %12, align 8, !tbaa !95
  ret void
}

; Function Attrs: mustprogress nounwind uwtable
define linkonce_odr hidden noundef ptr @_ZNKSt10unique_ptrIN5osgeo4proj15SQLiteStatementESt14default_deleteIS2_EEptEv(ptr noundef nonnull align 8 dereferenceable(8) %0) #6 comdat align 2 {
  %2 = alloca ptr, align 8
  store ptr %0, ptr %2, align 8, !tbaa !82
  %3 = load ptr, ptr %2, align 8
  %4 = call noundef ptr @_ZNKSt10unique_ptrIN5osgeo4proj15SQLiteStatementESt14default_deleteIS2_EE3getEv(ptr noundef nonnull align 8 dereferenceable(8) %3) #4
  ret ptr %4
}

; Function Attrs: mustprogress nounwind uwtable
define linkonce_odr hidden noundef zeroext i1 @_ZNKSt10unique_ptrIN5osgeo4proj15SQLiteStatementESt14default_deleteIS2_EEcvbEv(ptr noundef nonnull align 8 dereferenceable(8) %0) #6 comdat align 2 {
  %2 = alloca ptr, align 8
  store ptr %0, ptr %2, align 8, !tbaa !82
  %3 = load ptr, ptr %2, align 8
  %4 = call noundef ptr @_ZNKSt10unique_ptrIN5osgeo4proj15SQLiteStatementESt14default_deleteIS2_EE3getEv(ptr noundef nonnull align 8 dereferenceable(8) %3) #4
  %5 = icmp eq ptr %4, null
  %6 = select i1 %5, i1 false, i1 true
  ret i1 %6
}

; Function Attrs: mustprogress uwtable
define hidden noundef zeroext i1 @_ZN5osgeo4proj14DiskChunkCache20update_linked_chunksExxx(ptr noundef nonnull align 8 dereferenceable(56) %0, i64 noundef %1, i64 noundef %2, i64 noundef %3) #5 align 2 personality ptr @__gxx_personality_v0 {
  %5 = alloca i1, align 1
  %6 = alloca ptr, align 8
  %7 = alloca i64, align 8
  %8 = alloca i64, align 8
  %9 = alloca i64, align 8
  %10 = alloca %"class.std::unique_ptr.48", align 8
  %11 = alloca i32, align 4
  %12 = alloca ptr, align 8
  %13 = alloca i32, align 4
  %14 = alloca i32, align 4
  store ptr %0, ptr %6, align 8, !tbaa !49
  store i64 %1, ptr %7, align 8, !tbaa !77
  store i64 %2, ptr %8, align 8, !tbaa !77
  store i64 %3, ptr %9, align 8, !tbaa !77
  %15 = load ptr, ptr %6, align 8
  call void @llvm.lifetime.start.p0(i64 8, ptr %10) #4
  call void @_ZN5osgeo4proj14DiskChunkCache7prepareEPKc(ptr dead_on_unwind writable sret(%"class.std::unique_ptr.48") align 8 %10, ptr noundef nonnull align 8 dereferenceable(56) %15, ptr noundef @.str.36)
  %16 = call noundef zeroext i1 @_ZNKSt10unique_ptrIN5osgeo4proj15SQLiteStatementESt14default_deleteIS2_EEcvbEv(ptr noundef nonnull align 8 dereferenceable(8) %10) #4
  br i1 %16, label %18, label %17

17:                                               ; preds = %4
  store i1 false, ptr %5, align 1
  store i32 1, ptr %11, align 4
  br label %65

18:                                               ; preds = %4
  %19 = load i64, ptr %8, align 8, !tbaa !77
  %20 = icmp ne i64 %19, 0
  br i1 %20, label %21, label %29

21:                                               ; preds = %18
  %22 = call noundef ptr @_ZNKSt10unique_ptrIN5osgeo4proj15SQLiteStatementESt14default_deleteIS2_EEptEv(ptr noundef nonnull align 8 dereferenceable(8) %10) #4
  %23 = load i64, ptr %8, align 8, !tbaa !77
  invoke void @_ZN5osgeo4proj15SQLiteStatement9bindInt64Ex(ptr noundef nonnull align 8 dereferenceable(16) %22, i64 noundef %23)
          to label %24 unwind label %25

24:                                               ; preds = %21
  br label %32

25:                                               ; preds = %42, %39, %35, %29, %21
  %26 = landingpad { ptr, i32 }
          cleanup
  %27 = extractvalue { ptr, i32 } %26, 0
  store ptr %27, ptr %12, align 8
  %28 = extractvalue { ptr, i32 } %26, 1
  store i32 %28, ptr %13, align 4
  br label %67

29:                                               ; preds = %18
  %30 = call noundef ptr @_ZNKSt10unique_ptrIN5osgeo4proj15SQLiteStatementESt14default_deleteIS2_EEptEv(ptr noundef nonnull align 8 dereferenceable(8) %10) #4
  invoke void @_ZN5osgeo4proj15SQLiteStatement8bindNullEv(ptr noundef nonnull align 8 dereferenceable(16) %30)
          to label %31 unwind label %25

31:                                               ; preds = %29
  br label %32

32:                                               ; preds = %31, %24
  %33 = load i64, ptr %9, align 8, !tbaa !77
  %34 = icmp ne i64 %33, 0
  br i1 %34, label %35, label %39

35:                                               ; preds = %32
  %36 = call noundef ptr @_ZNKSt10unique_ptrIN5osgeo4proj15SQLiteStatementESt14default_deleteIS2_EEptEv(ptr noundef nonnull align 8 dereferenceable(8) %10) #4
  %37 = load i64, ptr %9, align 8, !tbaa !77
  invoke void @_ZN5osgeo4proj15SQLiteStatement9bindInt64Ex(ptr noundef nonnull align 8 dereferenceable(16) %36, i64 noundef %37)
          to label %38 unwind label %25

38:                                               ; preds = %35
  br label %42

39:                                               ; preds = %32
  %40 = call noundef ptr @_ZNKSt10unique_ptrIN5osgeo4proj15SQLiteStatementESt14default_deleteIS2_EEptEv(ptr noundef nonnull align 8 dereferenceable(8) %10) #4
  invoke void @_ZN5osgeo4proj15SQLiteStatement8bindNullEv(ptr noundef nonnull align 8 dereferenceable(16) %40)
          to label %41 unwind label %25

41:                                               ; preds = %39
  br label %42

42:                                               ; preds = %41, %38
  %43 = call noundef ptr @_ZNKSt10unique_ptrIN5osgeo4proj15SQLiteStatementESt14default_deleteIS2_EEptEv(ptr noundef nonnull align 8 dereferenceable(8) %10) #4
  %44 = load i64, ptr %7, align 8, !tbaa !77
  invoke void @_ZN5osgeo4proj15SQLiteStatement9bindInt64Ex(ptr noundef nonnull align 8 dereferenceable(16) %43, i64 noundef %44)
          to label %45 unwind label %25

45:                                               ; preds = %42
  call void @llvm.lifetime.start.p0(i64 4, ptr %14) #4
  %46 = call noundef ptr @_ZNKSt10unique_ptrIN5osgeo4proj15SQLiteStatementESt14default_deleteIS2_EEptEv(ptr noundef nonnull align 8 dereferenceable(8) %10) #4
  %47 = invoke noundef i32 @_ZN5osgeo4proj15SQLiteStatement7executeEv(ptr noundef nonnull align 8 dereferenceable(16) %46)
          to label %48 unwind label %59

48:                                               ; preds = %45
  store i32 %47, ptr %14, align 4, !tbaa !62
  %49 = load i32, ptr %14, align 4, !tbaa !62
  %50 = icmp ne i32 %49, 101
  br i1 %50, label %51, label %63

51:                                               ; preds = %48
  %52 = getelementptr inbounds nuw %"class.osgeo::proj::DiskChunkCache", ptr %15, i32 0, i32 0
  %53 = load ptr, ptr %52, align 8, !tbaa !51
  %54 = getelementptr inbounds nuw %"class.osgeo::proj::DiskChunkCache", ptr %15, i32 0, i32 2
  %55 = load ptr, ptr %54, align 8, !tbaa !61
  %56 = invoke ptr @sqlite3_errmsg(ptr noundef %55)
          to label %57 unwind label %59

57:                                               ; preds = %51
  invoke void (ptr, i32, ptr, ...) @_Z6pj_logP6pj_ctxiPKcz(ptr noundef %53, i32 noundef 1, ptr noundef @.str.3, ptr noundef %56)
          to label %58 unwind label %59

58:                                               ; preds = %57
  store i1 false, ptr %5, align 1
  store i32 1, ptr %11, align 4
  br label %64

59:                                               ; preds = %57, %51, %45
  %60 = landingpad { ptr, i32 }
          cleanup
  %61 = extractvalue { ptr, i32 } %60, 0
  store ptr %61, ptr %12, align 8
  %62 = extractvalue { ptr, i32 } %60, 1
  store i32 %62, ptr %13, align 4
  call void @llvm.lifetime.end.p0(i64 4, ptr %14) #4
  br label %67

63:                                               ; preds = %48
  store i1 true, ptr %5, align 1
  store i32 1, ptr %11, align 4
  br label %64

64:                                               ; preds = %63, %58
  call void @llvm.lifetime.end.p0(i64 4, ptr %14) #4
  br label %65

65:                                               ; preds = %64, %17
  call void @_ZNSt10unique_ptrIN5osgeo4proj15SQLiteStatementESt14default_deleteIS2_EED2Ev(ptr noundef nonnull align 8 dereferenceable(8) %10) #4
  call void @llvm.lifetime.end.p0(i64 8, ptr %10) #4
  %66 = load i1, ptr %5, align 1
  ret i1 %66

67:                                               ; preds = %59, %25
  call void @_ZNSt10unique_ptrIN5osgeo4proj15SQLiteStatementESt14default_deleteIS2_EED2Ev(ptr noundef nonnull align 8 dereferenceable(8) %10) #4
  call void @llvm.lifetime.end.p0(i64 8, ptr %10) #4
  br label %68

68:                                               ; preds = %67
  %69 = load ptr, ptr %12, align 8
  %70 = load i32, ptr %13, align 4
  %71 = insertvalue { ptr, i32 } poison, ptr %69, 0
  %72 = insertvalue { ptr, i32 } %71, i32 %70, 1
  resume { ptr, i32 } %72
}