; Function Attrs: mustprogress uwtable
define hidden noundef zeroext i1 @_ZN5osgeo4proj14DiskChunkCache20update_linked_chunksExxx(ptr noundef nonnull readonly align 8 captures(none) dereferenceable(56) %0, i64 noundef %1, i64 noundef %2, i64 noundef %3) local_unnamed_addr #3 align 2 personality ptr @__gxx_personality_v0 {
  %5 = alloca %"class.std::unique_ptr.48", align 8
  call void @llvm.lifetime.start.p0(i64 8, ptr nonnull %5) #30
  call void @_ZN5osgeo4proj14DiskChunkCache7prepareEPKc(ptr dead_on_unwind nonnull writable sret(%"class.std::unique_ptr.48") align 8 %5, ptr noundef nonnull align 8 dereferenceable(56) %0, ptr noundef nonnull @.str.36)
  %6 = load ptr, ptr %5, align 8, !tbaa !81
  %.not22 = icmp eq ptr %6, null
  br i1 %.not22, label %_ZNSt10unique_ptrIN5osgeo4proj15SQLiteStatementESt14default_deleteIS2_EED2Ev.exit, label %7

7:                                                ; preds = %4
  %.not = icmp eq i64 %2, 0
  %8 = load ptr, ptr %6, align 8, !tbaa !83
  %9 = getelementptr inbounds nuw i8, ptr %6, i64 8
  %10 = load i32, ptr %9, align 8, !tbaa !97
  br i1 %.not, label %15, label %11

11:                                               ; preds = %7
  %12 = invoke i32 @sqlite3_bind_int64(ptr noundef %8, i32 noundef %10, i64 noundef %2)
          to label %_ZN5osgeo4proj15SQLiteStatement9bindInt64Ex.exit unwind label %13

13:                                               ; preds = %_ZN5osgeo4proj15SQLiteStatement9bindInt64Ex.exit16, %22, %20, %15, %11
  %14 = landingpad { ptr, i32 }
          cleanup
  br label %49

15:                                               ; preds = %7
  %16 = invoke i32 @sqlite3_bind_null(ptr noundef %8, i32 noundef %10)
          to label %_ZN5osgeo4proj15SQLiteStatement9bindInt64Ex.exit unwind label %13

_ZN5osgeo4proj15SQLiteStatement9bindInt64Ex.exit: ; preds = %15, %11
  %17 = load i32, ptr %9, align 8, !tbaa !97
  %18 = add nsw i32 %17, 1
  store i32 %18, ptr %9, align 8, !tbaa !97
  %.not13 = icmp eq i64 %3, 0
  %19 = load ptr, ptr %6, align 8, !tbaa !83
  br i1 %.not13, label %22, label %20

20:                                               ; preds = %_ZN5osgeo4proj15SQLiteStatement9bindInt64Ex.exit
  %21 = invoke i32 @sqlite3_bind_int64(ptr noundef %19, i32 noundef %18, i64 noundef %3)
          to label %_ZN5osgeo4proj15SQLiteStatement9bindInt64Ex.exit16 unwind label %13

22:                                               ; preds = %_ZN5osgeo4proj15SQLiteStatement9bindInt64Ex.exit
  %23 = invoke i32 @sqlite3_bind_null(ptr noundef %19, i32 noundef %18)
          to label %_ZN5osgeo4proj15SQLiteStatement9bindInt64Ex.exit16 unwind label %13

_ZN5osgeo4proj15SQLiteStatement9bindInt64Ex.exit16: ; preds = %22, %20
  %24 = getelementptr inbounds nuw i8, ptr %6, i64 8
  %25 = load i32, ptr %24, align 8, !tbaa !97
  %26 = add nsw i32 %25, 1
  store i32 %26, ptr %24, align 8, !tbaa !97
  %27 = load ptr, ptr %6, align 8, !tbaa !83
  %28 = invoke i32 @sqlite3_bind_int64(ptr noundef %27, i32 noundef %26, i64 noundef %1)
          to label %29 unwind label %13

29:                                               ; preds = %_ZN5osgeo4proj15SQLiteStatement9bindInt64Ex.exit16
  %30 = getelementptr inbounds nuw i8, ptr %6, i64 8
  %31 = load i32, ptr %30, align 8, !tbaa !97
  %32 = add nsw i32 %31, 1
  store i32 %32, ptr %30, align 8, !tbaa !97
  %33 = load ptr, ptr %6, align 8, !tbaa !83
  %34 = invoke noundef i32 @sqlite3_step(ptr noundef %33)
          to label %_ZN5osgeo4proj15SQLiteStatement7executeEv.exit unwind label %41

_ZN5osgeo4proj15SQLiteStatement7executeEv.exit:   ; preds = %29
  %.not14 = icmp eq i32 %34, 101
  br i1 %.not14, label %43, label %35

35:                                               ; preds = %_ZN5osgeo4proj15SQLiteStatement7executeEv.exit
  %36 = load ptr, ptr %0, align 8, !tbaa !58
  %37 = getelementptr inbounds nuw i8, ptr %0, i64 40
  %38 = load ptr, ptr %37, align 8, !tbaa !77
  %39 = invoke ptr @sqlite3_errmsg(ptr noundef %38)
          to label %40 unwind label %41

40:                                               ; preds = %35
  invoke void (ptr, i32, ptr, ...) @_Z6pj_logP6pj_ctxiPKcz(ptr noundef %36, i32 noundef 1, ptr noundef nonnull @.str.3, ptr noundef %39)
          to label %43 unwind label %41

41:                                               ; preds = %29, %40, %35
  %42 = landingpad { ptr, i32 }
          cleanup
  br label %49

43:                                               ; preds = %_ZN5osgeo4proj15SQLiteStatement7executeEv.exit, %40
  %44 = load ptr, ptr %6, align 8, !tbaa !83
  %45 = invoke i32 @sqlite3_finalize(ptr noundef %44)
          to label %_ZNKSt14default_deleteIN5osgeo4proj15SQLiteStatementEEclEPS2_.exit.i unwind label %46

46:                                               ; preds = %43
  %47 = landingpad { ptr, i32 }
          catch ptr null
  %48 = extractvalue { ptr, i32 } %47, 0
  tail call void @__clang_call_terminate(ptr %48) #35
  unreachable

_ZNKSt14default_deleteIN5osgeo4proj15SQLiteStatementEEclEPS2_.exit.i: ; preds = %43
  tail call void @_ZdlPvm(ptr noundef nonnull %6, i64 noundef 16) #31
  br label %_ZNSt10unique_ptrIN5osgeo4proj15SQLiteStatementESt14default_deleteIS2_EED2Ev.exit

_ZNSt10unique_ptrIN5osgeo4proj15SQLiteStatementESt14default_deleteIS2_EED2Ev.exit: ; preds = %4, %_ZNKSt14default_deleteIN5osgeo4proj15SQLiteStatementEEclEPS2_.exit.i
  %.021 = phi i1 [ %.not14, %_ZNKSt14default_deleteIN5osgeo4proj15SQLiteStatementEEclEPS2_.exit.i ], [ false, %4 ]
  call void @llvm.lifetime.end.p0(i64 8, ptr nonnull %5) #30
  ret i1 %.021

49:                                               ; preds = %41, %13
  %.pn = phi { ptr, i32 } [ %42, %41 ], [ %14, %13 ]
  call void @_ZNSt10unique_ptrIN5osgeo4proj15SQLiteStatementESt14default_deleteIS2_EED2Ev(ptr noundef nonnull align 8 dereferenceable(8) %5) #30
  call void @llvm.lifetime.end.p0(i64 8, ptr nonnull %5) #30
  resume { ptr, i32 } %.pn
}